target datalayout = "e-m:e-p270:32:32-p271:32:32-p272:64:64-i64:64-i128:128-f80:128-n8:16:32:64-S128"
target triple = "x86_64-pc-linux-gnu"

%struct.If_Cut_t_ = type <{ float, float, float, float, i32, i32, i32, i64, [0 x i32] }>
%struct.If_Man_t_ = type { ptr, ptr, ptr, ptr, ptr, ptr, ptr, ptr, [5 x i32], i32, float, float, float, float, i32, float, i32, i32, [4 x ptr], ptr, i32, i32, i32, ptr, [3 x [32 x i32]], i32, i32, i32, ptr, ptr, ptr, ptr, ptr, ptr, ptr, i32, i32, i32, [16 x i32], i32, i32, i32, i32, ptr, ptr, ptr, ptr, ptr, i32, i32, [32 x i32], [32 x i32], i32, i32, i32, i32, ptr, [16 x ptr], [16 x ptr], [16 x ptr], [16 x ptr], [16 x ptr], [16 x ptr], [16 x ptr], ptr, ptr, ptr, ptr, [32 x i8], i32, i32, i32, [6 x i64], [2 x i32], [2 x i32], ptr, [15 x i32], ptr, ptr, ptr, [16 x i32], ptr, ptr, ptr, ptr, [2 x i32], [2 x i32], [2 x ptr], ptr }
%struct.If_Obj_t_ = type { i32, i32, i32, i32, i32, i32, ptr, ptr, ptr, float, float, float, %union.anon, ptr, %struct.If_Cut_t_ }
%union.anon = type { ptr }
%struct.Vec_Mem_t_ = type { i32, i32, i32, i32, i32, i32, ptr, ptr, ptr }
%struct.Vec_Ptr_t_ = type { i32, i32, ptr }

; Function Attrs: inlinehint nounwind uwtable
define internal i32 @Abc_LitIsCompl(i32 noundef %0) #2 {
  %2 = alloca i32, align 4
  store i32 %0, ptr %2, align 4, !tbaa !8
  %3 = load i32, ptr %2, align 4, !tbaa !8
  %4 = and i32 %3, 1
  ret i32 %4
}

; Function Attrs: inlinehint nounwind uwtable
define internal ptr @Vec_MemReadEntry(ptr noundef %0, i32 noundef %1) #2 {
  %3 = alloca ptr, align 8
  %4 = alloca i32, align 4
  store ptr %0, ptr %3, align 8, !tbaa !33
  store i32 %1, ptr %4, align 4, !tbaa !8
  %5 = load ptr, ptr %3, align 8, !tbaa !33
  %6 = getelementptr inbounds nuw %struct.Vec_Mem_t_, ptr %5, i32 0, i32 6
  %7 = load ptr, ptr %6, align 8, !tbaa !68
  %8 = load i32, ptr %4, align 4, !tbaa !8
  %9 = load ptr, ptr %3, align 8, !tbaa !33
  %10 = getelementptr inbounds nuw %struct.Vec_Mem_t_, ptr %9, i32 0, i32 2
  %11 = load i32, ptr %10, align 8, !tbaa !69
  %12 = ashr i32 %8, %11
  %13 = sext i32 %12 to i64
  %14 = getelementptr inbounds ptr, ptr %7, i64 %13
  %15 = load ptr, ptr %14, align 8, !tbaa !3
  %16 = load ptr, ptr %3, align 8, !tbaa !33
  %17 = getelementptr inbounds nuw %struct.Vec_Mem_t_, ptr %16, i32 0, i32 0
  %18 = load i32, ptr %17, align 8, !tbaa !70
  %19 = load i32, ptr %4, align 4, !tbaa !8
  %20 = load ptr, ptr %3, align 8, !tbaa !33
  %21 = getelementptr inbounds nuw %struct.Vec_Mem_t_, ptr %20, i32 0, i32 3
  %22 = load i32, ptr %21, align 4, !tbaa !71
  %23 = and i32 %19, %22
  %24 = mul nsw i32 %18, %23
  %25 = sext i32 %24 to i64
  %26 = getelementptr inbounds i64, ptr %15, i64 %25
  ret ptr %26
}

; Function Attrs: inlinehint nounwind uwtable
define internal i32 @Abc_Lit2Var(i32 noundef %0) #2 {
  %2 = alloca i32, align 4
  store i32 %0, ptr %2, align 4, !tbaa !8
  %3 = load i32, ptr %2, align 4, !tbaa !8
  %4 = ashr i32 %3, 1
  ret i32 %4
}

; Function Attrs: inlinehint nounwind uwtable
define internal ptr @Vec_PtrEntry(ptr noundef %0, i32 noundef %1) #2 {
  %3 = alloca ptr, align 8
  %4 = alloca i32, align 4
  store ptr %0, ptr %3, align 8, !tbaa !138
  store i32 %1, ptr %4, align 4, !tbaa !8
  %5 = load ptr, ptr %3, align 8, !tbaa !138
  %6 = getelementptr inbounds nuw %struct.Vec_Ptr_t_, ptr %5, i32 0, i32 2
  %7 = load ptr, ptr %6, align 8, !tbaa !139
  %8 = load i32, ptr %4, align 4, !tbaa !8
  %9 = sext i32 %8 to i64
  %10 = getelementptr inbounds ptr, ptr %7, i64 %9
  %11 = load ptr, ptr %10, align 8, !tbaa !141
  ret ptr %11
}

; Function Attrs: inlinehint nounwind uwtable
define internal i32 @Abc_Var2Lit(i32 noundef %0, i32 noundef %1) #2 {
  %3 = alloca i32, align 4
  %4 = alloca i32, align 4
  store i32 %0, ptr %3, align 4, !tbaa !8
  store i32 %1, ptr %4, align 4, !tbaa !8
  %5 = load i32, ptr %3, align 4, !tbaa !8
  %6 = load i32, ptr %3, align 4, !tbaa !8
  %7 = add nsw i32 %5, %6
  %8 = load i32, ptr %4, align 4, !tbaa !8
  %9 = add nsw i32 %7, %8
  ret i32 %9
}

; Function Attrs: inlinehint nounwind uwtable
define internal i32 @If_CutTruthIsCompl(ptr noundef %0) #2 {
  %2 = alloca ptr, align 8
  store ptr %0, ptr %2, align 8, !tbaa !26
  %3 = load ptr, ptr %2, align 8, !tbaa !26
  %4 = getelementptr inbounds nuw %struct.If_Cut_t_, ptr %3, i32 0, i32 4
  %5 = load i32, ptr %4, align 4, !tbaa !48
  %6 = call i32 @Abc_LitIsCompl(i32 noundef %5)
  ret i32 %6
}

; Function Attrs: inlinehint nounwind uwtable
define internal void @Abc_TtCopy(ptr noundef %0, ptr noundef %1, i32 noundef %2, i32 noundef %3) #2 {
  %5 = alloca ptr, align 8
  %6 = alloca ptr, align 8
  %7 = alloca i32, align 4
  %8 = alloca i32, align 4
  %9 = alloca i32, align 4
  store ptr %0, ptr %5, align 8, !tbaa !3
  store ptr %1, ptr %6, align 8, !tbaa !3
  store i32 %2, ptr %7, align 4, !tbaa !8
  store i32 %3, ptr %8, align 4, !tbaa !8
  call void @llvm.lifetime.start.p0(i64 4, ptr %9) #11
  %10 = load i32, ptr %8, align 4, !tbaa !8
  %11 = icmp ne i32 %10, 0
  br i1 %11, label %12, label %32

12:                                               ; preds = %4
  store i32 0, ptr %9, align 4, !tbaa !8
  br label %13

13:                                               ; preds = %28, %12
  %14 = load i32, ptr %9, align 4, !tbaa !8
  %15 = load i32, ptr %7, align 4, !tbaa !8
  %16 = icmp slt i32 %14, %15
  br i1 %16, label %17, label %31

17:                                               ; preds = %13
  %18 = load ptr, ptr %6, align 8, !tbaa !3
  %19 = load i32, ptr %9, align 4, !tbaa !8
  %20 = sext i32 %19 to i64
  %21 = getelementptr inbounds i64, ptr %18, i64 %20
  %22 = load i64, ptr %21, align 8, !tbaa !18
  %23 = xor i64 %22, -1
  %24 = load ptr, ptr %5, align 8, !tbaa !3
  %25 = load i32, ptr %9, align 4, !tbaa !8
  %26 = sext i32 %25 to i64
  %27 = getelementptr inbounds i64, ptr %24, i64 %26
  store i64 %23, ptr %27, align 8, !tbaa !18
  br label %28

28:                                               ; preds = %17
  %29 = load i32, ptr %9, align 4, !tbaa !8
  %30 = add nsw i32 %29, 1
  store i32 %30, ptr %9, align 4, !tbaa !8
  br label %13, !llvm.loop !50

31:                                               ; preds = %13
  br label %51

32:                                               ; preds = %4
  store i32 0, ptr %9, align 4, !tbaa !8
  br label %33

33:                                               ; preds = %47, %32
  %34 = load i32, ptr %9, align 4, !tbaa !8
  %35 = load i32, ptr %7, align 4, !tbaa !8
  %36 = icmp slt i32 %34, %35
  br i1 %36, label %37, label %50

37:                                               ; preds = %33
  %38 = load ptr, ptr %6, align 8, !tbaa !3
  %39 = load i32, ptr %9, align 4, !tbaa !8
  %40 = sext i32 %39 to i64
  %41 = getelementptr inbounds i64, ptr %38, i64 %40
  %42 = load i64, ptr %41, align 8, !tbaa !18
  %43 = load ptr, ptr %5, align 8, !tbaa !3
  %44 = load i32, ptr %9, align 4, !tbaa !8
  %45 = sext i32 %44 to i64
  %46 = getelementptr inbounds i64, ptr %43, i64 %45
  store i64 %42, ptr %46, align 8, !tbaa !18
  br label %47

47:                                               ; preds = %37
  %48 = load i32, ptr %9, align 4, !tbaa !8
  %49 = add nsw i32 %48, 1
  store i32 %49, ptr %9, align 4, !tbaa !8
  br label %33, !llvm.loop !51

50:                                               ; preds = %33
  br label %51

51:                                               ; preds = %50, %31
  call void @llvm.lifetime.end.p0(i64 4, ptr %9) #11
  ret void
}

; Function Attrs: inlinehint nounwind uwtable
define internal ptr @If_CutTruthWR(ptr noundef %0, ptr noundef %1) #2 {
  %3 = alloca ptr, align 8
  %4 = alloca ptr, align 8
  store ptr %0, ptr %3, align 8, !tbaa !24
  store ptr %1, ptr %4, align 8, !tbaa !26
  %5 = load ptr, ptr %3, align 8, !tbaa !24
  %6 = getelementptr inbounds nuw %struct.If_Man_t_, ptr %5, i32 0, i32 57
  %7 = load ptr, ptr %4, align 8, !tbaa !26
  %8 = getelementptr inbounds nuw %struct.If_Cut_t_, ptr %7, i32 0, i32 7
  %9 = load i64, ptr %8, align 4
  %10 = lshr i64 %9, 24
  %11 = and i64 %10, 255
  %12 = trunc i64 %11 to i32
  %13 = zext i32 %12 to i64
  %14 = getelementptr inbounds nuw [16 x ptr], ptr %6, i64 0, i64 %13
  %15 = load ptr, ptr %14, align 8, !tbaa !33
  %16 = icmp ne ptr %15, null
  br i1 %16, label %17, label %34

17:                                               ; preds = %2
  %18 = load ptr, ptr %3, align 8, !tbaa !24
  %19 = getelementptr inbounds nuw %struct.If_Man_t_, ptr %18, i32 0, i32 57
  %20 = load ptr, ptr %4, align 8, !tbaa !26
  %21 = getelementptr inbounds nuw %struct.If_Cut_t_, ptr %20, i32 0, i32 7
  %22 = load i64, ptr %21, align 4
  %23 = lshr i64 %22, 24
  %24 = and i64 %23, 255
  %25 = trunc i64 %24 to i32
  %26 = zext i32 %25 to i64
  %27 = getelementptr inbounds nuw [16 x ptr], ptr %19, i64 0, i64 %26
  %28 = load ptr, ptr %27, align 8, !tbaa !33
  %29 = load ptr, ptr %4, align 8, !tbaa !26
  %30 = getelementptr inbounds nuw %struct.If_Cut_t_, ptr %29, i32 0, i32 4
  %31 = load i32, ptr %30, align 4, !tbaa !48
  %32 = call i32 @Abc_Lit2Var(i32 noundef %31)
  %33 = call ptr @Vec_MemReadEntry(ptr noundef %28, i32 noundef %32)
  br label %35

34:                                               ; preds = %2
  br label %35

35:                                               ; preds = %34, %17
  %36 = phi ptr [ %33, %17 ], [ null, %34 ]
  ret ptr %36
}

; Function Attrs: inlinehint nounwind uwtable
define internal ptr @If_CutLeaves(ptr noundef %0) #2 {
  %2 = alloca ptr, align 8
  store ptr %0, ptr %2, align 8, !tbaa !26
  %3 = load ptr, ptr %2, align 8, !tbaa !26
  %4 = getelementptr inbounds nuw %struct.If_Cut_t_, ptr %3, i32 0, i32 8
  %5 = getelementptr inbounds [0 x i32], ptr %4, i64 0, i64 0
  ret ptr %5
}

; Function Attrs: inlinehint nounwind uwtable
define internal i32 @If_CutLeaveNum(ptr noundef %0) #2 {
  %2 = alloca ptr, align 8
  store ptr %0, ptr %2, align 8, !tbaa !26
  %3 = load ptr, ptr %2, align 8, !tbaa !26
  %4 = getelementptr inbounds nuw %struct.If_Cut_t_, ptr %3, i32 0, i32 7
  %5 = load i64, ptr %4, align 4
  %6 = lshr i64 %5, 24
  %7 = and i64 %6, 255
  %8 = trunc i64 %7 to i32
  ret i32 %8
}

; Function Attrs: inlinehint nounwind uwtable
define internal ptr @If_ObjCutBest(ptr noundef %0) #2 {
  %2 = alloca ptr, align 8
  store ptr %0, ptr %2, align 8, !tbaa !28
  %3 = load ptr, ptr %2, align 8, !tbaa !28
  %4 = getelementptr inbounds nuw %struct.If_Obj_t_, ptr %3, i32 0, i32 14
  ret ptr %4
}

; Function Attrs: inlinehint nounwind uwtable
define internal ptr @If_ManObj(ptr noundef %0, i32 noundef %1) #2 {
  %3 = alloca ptr, align 8
  %4 = alloca i32, align 4
  store ptr %0, ptr %3, align 8, !tbaa !24
  store i32 %1, ptr %4, align 4, !tbaa !8
  %5 = load ptr, ptr %3, align 8, !tbaa !24
  %6 = getelementptr inbounds nuw %struct.If_Man_t_, ptr %5, i32 0, i32 5
  %7 = load ptr, ptr %6, align 8, !tbaa !49
  %8 = load i32, ptr %4, align 4, !tbaa !8
  %9 = call ptr @Vec_PtrEntry(ptr noundef %7, i32 noundef %8)
  ret ptr %9
}

; Function Attrs: nounwind uwtable
define void @If_CutRotatePins(ptr noundef %0, ptr noundef %1) #0 {
  %3 = alloca ptr, align 8
  %4 = alloca ptr, align 8
  %5 = alloca ptr, align 8
  %6 = alloca [32 x float], align 16
  %7 = alloca i32, align 4
  %8 = alloca i32, align 4
  %9 = alloca i32, align 4
  store ptr %0, ptr %3, align 8, !tbaa !24
  store ptr %1, ptr %4, align 8, !tbaa !26
  call void @llvm.lifetime.start.p0(i64 8, ptr %5) #11
  call void @llvm.lifetime.start.p0(i64 128, ptr %6) #11
  call void @llvm.lifetime.start.p0(i64 4, ptr %7) #11
  call void @llvm.lifetime.start.p0(i64 4, ptr %8) #11
  store i32 0, ptr %7, align 4, !tbaa !8
  br label %10

10:                                               ; preds = %39, %2
  %11 = load i32, ptr %7, align 4, !tbaa !8
  %12 = load ptr, ptr %4, align 8, !tbaa !26
  %13 = getelementptr inbounds nuw %struct.If_Cut_t_, ptr %12, i32 0, i32 7
  %14 = load i64, ptr %13, align 4
  %15 = lshr i64 %14, 24
  %16 = and i64 %15, 255
  %17 = trunc i64 %16 to i32
  %18 = icmp slt i32 %11, %17
  br i1 %18, label %19, label %29

19:                                               ; preds = %10
  %20 = load ptr, ptr %3, align 8, !tbaa !24
  %21 = load ptr, ptr %4, align 8, !tbaa !26
  %22 = getelementptr inbounds nuw %struct.If_Cut_t_, ptr %21, i32 0, i32 8
  %23 = load i32, ptr %7, align 4, !tbaa !8
  %24 = sext i32 %23 to i64
  %25 = getelementptr inbounds [0 x i32], ptr %22, i64 0, i64 %24
  %26 = load i32, ptr %25, align 4, !tbaa !8
  %27 = call ptr @If_ManObj(ptr noundef %20, i32 noundef %26)
  store ptr %27, ptr %5, align 8, !tbaa !28
  %28 = icmp ne ptr %27, null
  br label %29

29:                                               ; preds = %19, %10
  %30 = phi i1 [ false, %10 ], [ %28, %19 ]
  br i1 %30, label %31, label %42

31:                                               ; preds = %29
  %32 = load ptr, ptr %5, align 8, !tbaa !28
  %33 = call ptr @If_ObjCutBest(ptr noundef %32)
  %34 = getelementptr inbounds nuw %struct.If_Cut_t_, ptr %33, i32 0, i32 3
  %35 = load float, ptr %34, align 4, !tbaa !30
  %36 = load i32, ptr %7, align 4, !tbaa !8
  %37 = sext i32 %36 to i64
  %38 = getelementptr inbounds [32 x float], ptr %6, i64 0, i64 %37
  store float %35, ptr %38, align 4, !tbaa !14
  br label %39

39:                                               ; preds = %31
  %40 = load i32, ptr %7, align 4, !tbaa !8
  %41 = add nsw i32 %40, 1
  store i32 %41, ptr %7, align 4, !tbaa !8
  br label %10, !llvm.loop !32

42:                                               ; preds = %29
  %43 = load ptr, ptr %3, align 8, !tbaa !24
  %44 = getelementptr inbounds nuw %struct.If_Man_t_, ptr %43, i32 0, i32 57
  %45 = load ptr, ptr %4, align 8, !tbaa !26
  %46 = getelementptr inbounds nuw %struct.If_Cut_t_, ptr %45, i32 0, i32 7
  %47 = load i64, ptr %46, align 4
  %48 = lshr i64 %47, 24
  %49 = and i64 %48, 255
  %50 = trunc i64 %49 to i32
  %51 = zext i32 %50 to i64
  %52 = getelementptr inbounds nuw [16 x ptr], ptr %44, i64 0, i64 %51
  %53 = load ptr, ptr %52, align 8, !tbaa !33
  %54 = icmp eq ptr %53, null
  br i1 %54, label %55, label %78

55:                                               ; preds = %42
  %56 = load ptr, ptr %4, align 8, !tbaa !26
  %57 = call i32 @If_CutLeaveNum(ptr noundef %56)
  %58 = load ptr, ptr %4, align 8, !tbaa !26
  %59 = getelementptr inbounds nuw %struct.If_Cut_t_, ptr %58, i32 0, i32 7
  %60 = load i64, ptr %59, align 4
  %61 = lshr i64 %60, 24
  %62 = and i64 %61, 255
  %63 = trunc i64 %62 to i32
  %64 = load ptr, ptr %3, align 8, !tbaa !24
  %65 = getelementptr inbounds nuw %struct.If_Man_t_, ptr %64, i32 0, i32 38
  %66 = load ptr, ptr %4, align 8, !tbaa !26
  %67 = getelementptr inbounds nuw %struct.If_Cut_t_, ptr %66, i32 0, i32 7
  %68 = load i64, ptr %67, align 4
  %69 = lshr i64 %68, 24
  %70 = and i64 %69, 255
  %71 = trunc i64 %70 to i32
  %72 = zext i32 %71 to i64
  %73 = getelementptr inbounds nuw [16 x i32], ptr %65, i64 0, i64 %72
  %74 = load i32, ptr %73, align 4, !tbaa !8
  %75 = getelementptr inbounds [32 x float], ptr %6, i64 0, i64 0
  %76 = load ptr, ptr %4, align 8, !tbaa !26
  %77 = call ptr @If_CutLeaves(ptr noundef %76)
  call void @If_CutTruthPermute(ptr noundef null, i32 noundef %57, i32 noundef %63, i32 noundef %74, ptr noundef %75, ptr noundef %77)
  store i32 1, ptr %9, align 4
  br label %142

78:                                               ; preds = %42
  %79 = load ptr, ptr %3, align 8, !tbaa !24
  %80 = getelementptr inbounds nuw %struct.If_Man_t_, ptr %79, i32 0, i32 19
  %81 = load ptr, ptr %80, align 8, !tbaa !35
  %82 = load ptr, ptr %3, align 8, !tbaa !24
  %83 = load ptr, ptr %4, align 8, !tbaa !26
  %84 = call ptr @If_CutTruthWR(ptr noundef %82, ptr noundef %83)
  %85 = load ptr, ptr %3, align 8, !tbaa !24
  %86 = getelementptr inbounds nuw %struct.If_Man_t_, ptr %85, i32 0, i32 38
  %87 = load ptr, ptr %4, align 8, !tbaa !26
  %88 = getelementptr inbounds nuw %struct.If_Cut_t_, ptr %87, i32 0, i32 7
  %89 = load i64, ptr %88, align 4
  %90 = lshr i64 %89, 24
  %91 = and i64 %90, 255
  %92 = trunc i64 %91 to i32
  %93 = zext i32 %92 to i64
  %94 = getelementptr inbounds nuw [16 x i32], ptr %86, i64 0, i64 %93
  %95 = load i32, ptr %94, align 4, !tbaa !8
  call void @Abc_TtCopy(ptr noundef %81, ptr noundef %84, i32 noundef %95, i32 noundef 0)
  %96 = load ptr, ptr %3, align 8, !tbaa !24
  %97 = getelementptr inbounds nuw %struct.If_Man_t_, ptr %96, i32 0, i32 19
  %98 = load ptr, ptr %97, align 8, !tbaa !35
  %99 = load ptr, ptr %4, align 8, !tbaa !26
  %100 = call i32 @If_CutLeaveNum(ptr noundef %99)
  %101 = load ptr, ptr %4, align 8, !tbaa !26
  %102 = getelementptr inbounds nuw %struct.If_Cut_t_, ptr %101, i32 0, i32 7
  %103 = load i64, ptr %102, align 4
  %104 = lshr i64 %103, 24
  %105 = and i64 %104, 255
  %106 = trunc i64 %105 to i32
  %107 = load ptr, ptr %3, align 8, !tbaa !24
  %108 = getelementptr inbounds nuw %struct.If_Man_t_, ptr %107, i32 0, i32 38
  %109 = load ptr, ptr %4, align 8, !tbaa !26
  %110 = getelementptr inbounds nuw %struct.If_Cut_t_, ptr %109, i32 0, i32 7
  %111 = load i64, ptr %110, align 4
  %112 = lshr i64 %111, 24
  %113 = and i64 %112, 255
  %114 = trunc i64 %113 to i32
  %115 = zext i32 %114 to i64
  %116 = getelementptr inbounds nuw [16 x i32], ptr %108, i64 0, i64 %115
  %117 = load i32, ptr %116, align 4, !tbaa !8
  %118 = getelementptr inbounds [32 x float], ptr %6, i64 0, i64 0
  %119 = load ptr, ptr %4, align 8, !tbaa !26
  %120 = call ptr @If_CutLeaves(ptr noundef %119)
  call void @If_CutTruthPermute(ptr noundef %98, i32 noundef %100, i32 noundef %106, i32 noundef %117, ptr noundef %118, ptr noundef %120)
  %121 = load ptr, ptr %3, align 8, !tbaa !24
  %122 = getelementptr inbounds nuw %struct.If_Man_t_, ptr %121, i32 0, i32 57
  %123 = load ptr, ptr %4, align 8, !tbaa !26
  %124 = getelementptr inbounds nuw %struct.If_Cut_t_, ptr %123, i32 0, i32 7
  %125 = load i64, ptr %124, align 4
  %126 = lshr i64 %125, 24
  %127 = and i64 %126, 255
  %128 = trunc i64 %127 to i32
  %129 = zext i32 %128 to i64
  %130 = getelementptr inbounds nuw [16 x ptr], ptr %122, i64 0, i64 %129
  %131 = load ptr, ptr %130, align 8, !tbaa !33
  %132 = load ptr, ptr %3, align 8, !tbaa !24
  %133 = getelementptr inbounds nuw %struct.If_Man_t_, ptr %132, i32 0, i32 19
  %134 = load ptr, ptr %133, align 8, !tbaa !35
  %135 = call i32 @Vec_MemHashInsert(ptr noundef %131, ptr noundef %134)
  store i32 %135, ptr %8, align 4, !tbaa !8
  %136 = load i32, ptr %8, align 4, !tbaa !8
  %137 = load ptr, ptr %4, align 8, !tbaa !26
  %138 = call i32 @If_CutTruthIsCompl(ptr noundef %137)
  %139 = call i32 @Abc_Var2Lit(i32 noundef %136, i32 noundef %138)
  %140 = load ptr, ptr %4, align 8, !tbaa !26
  %141 = getelementptr inbounds nuw %struct.If_Cut_t_, ptr %140, i32 0, i32 4
  store i32 %139, ptr %141, align 4, !tbaa !48
  store i32 0, ptr %9, align 4
  br label %142

142:                                              ; preds = %78, %55
  call void @llvm.lifetime.end.p0(i64 4, ptr %8) #11
  call void @llvm.lifetime.end.p0(i64 4, ptr %7) #11
  call void @llvm.lifetime.end.p0(i64 128, ptr %6) #11
  call void @llvm.lifetime.end.p0(i64 8, ptr %5) #11
  %143 = load i32, ptr %9, align 4
  switch i32 %143, label %145 [
    i32 0, label %144
    i32 1, label %144
  ]

144:                                              ; preds = %142, %142
  ret void

145:                                              ; preds = %142
  unreachable
}