; Function Attrs: nounwind uwtable
define void @If_CutRotatePins(ptr noundef readonly captures(none) %0, ptr noundef captures(none) %1) local_unnamed_addr #2 {
  %3 = alloca [32 x float], align 16
  call void @llvm.lifetime.start.p0(i64 128, ptr nonnull %3) #14
  %4 = getelementptr inbounds nuw i8, ptr %1, i64 36
  %5 = getelementptr inbounds nuw i8, ptr %1, i64 28
  %6 = load i64, ptr %5, align 4
  %7 = trunc i64 %6 to i32
  %8 = lshr i32 %7, 24
  %.not45 = icmp ult i32 %7, 16777216
  br i1 %.not45, label %.critedge, label %.lr.ph

.lr.ph:                                           ; preds = %2
  %9 = getelementptr i8, ptr %0, i64 40
  %.val = load ptr, ptr %9, align 8, !tbaa !17
  %10 = getelementptr i8, ptr %.val, i64 8
  %.val.val = load ptr, ptr %10, align 8, !tbaa !34
  %umax = tail call i32 @llvm.umax.i32(i32 %8, i32 1)
  %wide.trip.count = zext nneg i32 %umax to i64
  br label %11

11:                                               ; preds = %.lr.ph, %17
  %indvars.iv = phi i64 [ 0, %.lr.ph ], [ %indvars.iv.next, %17 ]
  %12 = getelementptr inbounds nuw [0 x i32], ptr %4, i64 0, i64 %indvars.iv
  %13 = load i32, ptr %12, align 4, !tbaa !7
  %14 = sext i32 %13 to i64
  %15 = getelementptr inbounds ptr, ptr %.val.val, i64 %14
  %16 = load ptr, ptr %15, align 8, !tbaa !36
  %.not = icmp eq ptr %16, null
  br i1 %.not, label %.critedge, label %17

17:                                               ; preds = %11
  %18 = getelementptr inbounds nuw i8, ptr %16, i64 92
  %19 = load float, ptr %18, align 4, !tbaa !37
  %20 = getelementptr inbounds nuw [32 x float], ptr %3, i64 0, i64 %indvars.iv
  store float %19, ptr %20, align 4, !tbaa !3
  %indvars.iv.next = add nuw nsw i64 %indvars.iv, 1
  %exitcond.not = icmp eq i64 %indvars.iv.next, %wide.trip.count
  br i1 %exitcond.not, label %.critedge, label %11, !llvm.loop !39

.critedge:                                        ; preds = %11, %17, %2
  %21 = getelementptr inbounds nuw i8, ptr %0, i64 1064
  %22 = lshr i64 %6, 24
  %23 = and i64 %22, 255
  %24 = getelementptr inbounds nuw [16 x ptr], ptr %21, i64 0, i64 %23
  %25 = load ptr, ptr %24, align 8, !tbaa !40
  %26 = icmp eq ptr %25, null
  br i1 %26, label %27, label %If_CutTruthWR.exit

27:                                               ; preds = %.critedge
  %28 = icmp ugt i32 %7, 33554431
  br i1 %28, label %.split.us.i, label %If_CutTruthPermute.exit

.split.us.i:                                      ; preds = %27
  %29 = add nsw i32 %8, -1
  %wide.trip.count56.i = zext nneg i32 %29 to i64
  br label %.lr.ph.us.us.i

.lr.ph.us.us.i:                                   ; preds = %._crit_edge.split.us.us.us.i, %.split.us.i
  %.pre58.i = load float, ptr %3, align 16, !tbaa !3
  br label %30

30:                                               ; preds = %Abc_TtSwapAdjacent.exit.us.us.us.i, %.lr.ph.us.us.i
  %31 = phi float [ %41, %Abc_TtSwapAdjacent.exit.us.us.us.i ], [ %.pre58.i, %.lr.ph.us.us.i ]
  %indvars.iv53.i = phi i64 [ %indvars.iv.next54.i, %Abc_TtSwapAdjacent.exit.us.us.us.i ], [ 0, %.lr.ph.us.us.i ]
  %.03138.us.us.us.i = phi i32 [ %.1.us.us.us.i, %Abc_TtSwapAdjacent.exit.us.us.us.i ], [ 0, %.lr.ph.us.us.i ]
  %indvars.iv.next54.i = add nuw nsw i64 %indvars.iv53.i, 1
  %32 = getelementptr inbounds nuw float, ptr %3, i64 %indvars.iv.next54.i
  %33 = load float, ptr %32, align 4, !tbaa !3
  %34 = fcmp ult float %31, %33
  br i1 %34, label %35, label %Abc_TtSwapAdjacent.exit.us.us.us.i

35:                                               ; preds = %30
  %36 = getelementptr inbounds nuw float, ptr %3, i64 %indvars.iv53.i
  store float %33, ptr %36, align 4, !tbaa !3
  store float %31, ptr %32, align 4, !tbaa !3
  %37 = getelementptr inbounds nuw i32, ptr %4, i64 %indvars.iv53.i
  %38 = load i32, ptr %37, align 4, !tbaa !7
  %39 = getelementptr inbounds nuw i32, ptr %4, i64 %indvars.iv.next54.i
  %40 = load i32, ptr %39, align 4, !tbaa !7
  store i32 %40, ptr %37, align 4, !tbaa !7
  store i32 %38, ptr %39, align 4, !tbaa !7
  br label %Abc_TtSwapAdjacent.exit.us.us.us.i

Abc_TtSwapAdjacent.exit.us.us.us.i:               ; preds = %35, %30
  %41 = phi float [ %33, %30 ], [ %31, %35 ]
  %.1.us.us.us.i = phi i32 [ %.03138.us.us.us.i, %30 ], [ 1, %35 ]
  %exitcond57.not.i = icmp eq i64 %indvars.iv.next54.i, %wide.trip.count56.i
  br i1 %exitcond57.not.i, label %._crit_edge.split.us.us.us.i, label %30, !llvm.loop !9

._crit_edge.split.us.us.us.i:                     ; preds = %Abc_TtSwapAdjacent.exit.us.us.us.i
  %.not.not.us.us.i = icmp eq i32 %.1.us.us.us.i, 0
  br i1 %.not.not.us.us.i, label %If_CutTruthPermute.exit, label %.lr.ph.us.us.i

If_CutTruthWR.exit:                               ; preds = %.critedge
  %42 = getelementptr inbounds nuw i8, ptr %0, i64 152
  %43 = load ptr, ptr %42, align 8, !tbaa !41
  %44 = getelementptr i8, ptr %1, i64 16
  %45 = load i32, ptr %44, align 4, !tbaa !42
  %46 = ashr i32 %45, 1
  %47 = getelementptr inbounds nuw i8, ptr %25, i64 24
  %48 = load ptr, ptr %47, align 8, !tbaa !43
  %49 = getelementptr inbounds nuw i8, ptr %25, i64 8
  %50 = load i32, ptr %49, align 8, !tbaa !46
  %51 = ashr i32 %46, %50
  %52 = sext i32 %51 to i64
  %53 = getelementptr inbounds ptr, ptr %48, i64 %52
  %54 = load ptr, ptr %53, align 8, !tbaa !47
  %55 = load i32, ptr %25, align 8, !tbaa !48
  %56 = getelementptr inbounds nuw i8, ptr %25, i64 12
  %57 = load i32, ptr %56, align 4, !tbaa !49
  %58 = and i32 %57, %46
  %59 = mul nsw i32 %58, %55
  %60 = sext i32 %59 to i64
  %61 = getelementptr inbounds i64, ptr %54, i64 %60
  %62 = getelementptr inbounds nuw i8, ptr %0, i64 652
  %63 = getelementptr inbounds nuw [16 x i32], ptr %62, i64 0, i64 %23
  %64 = load i32, ptr %63, align 4, !tbaa !7
  %65 = icmp sgt i32 %64, 0
  br i1 %65, label %.lr.ph18.preheader.i, label %Abc_TtCopy.exit

.lr.ph18.preheader.i:                             ; preds = %If_CutTruthWR.exit
  %wide.trip.count24.i = zext nneg i32 %64 to i64
  br label %.lr.ph18.i

.lr.ph18.i:                                       ; preds = %.lr.ph18.i, %.lr.ph18.preheader.i
  %indvars.iv21.i = phi i64 [ 0, %.lr.ph18.preheader.i ], [ %indvars.iv.next22.i, %.lr.ph18.i ]
  %66 = getelementptr inbounds nuw i64, ptr %61, i64 %indvars.iv21.i
  %67 = load i64, ptr %66, align 8, !tbaa !11
  %68 = getelementptr inbounds nuw i64, ptr %43, i64 %indvars.iv21.i
  store i64 %67, ptr %68, align 8, !tbaa !11
  %indvars.iv.next22.i = add nuw nsw i64 %indvars.iv21.i, 1
  %exitcond25.not.i = icmp eq i64 %indvars.iv.next22.i, %wide.trip.count24.i
  br i1 %exitcond25.not.i, label %Abc_TtCopy.exit.loopexit, label %.lr.ph18.i, !llvm.loop !50

Abc_TtCopy.exit.loopexit:                         ; preds = %.lr.ph18.i
  %.val33.pre = load i64, ptr %5, align 4
  %.pre = trunc i64 %.val33.pre to i32
  %.pre48 = lshr i32 %.pre, 24
  br label %Abc_TtCopy.exit

Abc_TtCopy.exit:                                  ; preds = %Abc_TtCopy.exit.loopexit, %If_CutTruthWR.exit
  %.pre-phi49 = phi i32 [ %.pre48, %Abc_TtCopy.exit.loopexit ], [ %8, %If_CutTruthWR.exit ]
  %69 = zext nneg i32 %.pre-phi49 to i64
  %70 = getelementptr inbounds nuw [16 x i32], ptr %62, i64 0, i64 %69
  %71 = load i32, ptr %70, align 4, !tbaa !7
  call void @If_CutTruthPermute(ptr noundef %43, i32 noundef %.pre-phi49, i32 poison, i32 noundef %71, ptr noundef nonnull %3, ptr noundef nonnull %4)
  %72 = load i64, ptr %5, align 4
  %73 = lshr i64 %72, 24
  %74 = and i64 %73, 255
  %75 = getelementptr inbounds nuw [16 x ptr], ptr %21, i64 0, i64 %74
  %76 = load ptr, ptr %75, align 8, !tbaa !40
  %77 = load ptr, ptr %42, align 8, !tbaa !41
  %78 = tail call fastcc i32 @Vec_MemHashInsert(ptr noundef %76, ptr noundef %77)
  %.val34 = load i32, ptr %44, align 4, !tbaa !42
  %79 = and i32 %.val34, 1
  %80 = shl nsw i32 %78, 1
  %81 = or disjoint i32 %79, %80
  store i32 %81, ptr %44, align 4, !tbaa !42
  br label %If_CutTruthPermute.exit

If_CutTruthPermute.exit:                          ; preds = %._crit_edge.split.us.us.us.i, %27, %Abc_TtCopy.exit
  call void @llvm.lifetime.end.p0(i64 128, ptr nonnull %3) #14
  ret void
}